target datalayout = "e-m:e-p270:32:32-p271:32:32-p272:64:64-i64:64-i128:128-f80:128-n8:16:32:64-S128"
target triple = "x86_64-pc-linux-gnu"

%struct.gmx_output_env_t = type <{ ptr, i32, i8, [3 x i8], i32, i32, i32, [4 x i8] }>

@_ZTISt9exception = external constant ptr
@.str = private unnamed_addr constant [28 x i8] c"GMX_TRAJECTORY_IO_VERBOSITY\00", align 1

; Function Attrs: mustprogress nounwind uwtable
define linkonce_odr void @_ZN16gmx_output_env_tC2ERKN3gmx15IProgramContextE(ptr noundef nonnull align 8 dereferenceable(28) %0, ptr noundef nonnull align 8 dereferenceable(8) %1) unnamed_addr #3 comdat align 2 {
  %3 = alloca ptr, align 8
  %4 = alloca ptr, align 8
  store ptr %0, ptr %3, align 8, !tbaa !20
  store ptr %1, ptr %4, align 8, !tbaa !10
  %5 = load ptr, ptr %3, align 8
  %6 = getelementptr inbounds nuw %struct.gmx_output_env_t, ptr %5, i32 0, i32 0
  %7 = load ptr, ptr %4, align 8, !tbaa !10
  store ptr %7, ptr %6, align 8, !tbaa !10
  %8 = getelementptr inbounds nuw %struct.gmx_output_env_t, ptr %5, i32 0, i32 1
  store i32 1, ptr %8, align 8, !tbaa !22
  %9 = getelementptr inbounds nuw %struct.gmx_output_env_t, ptr %5, i32 0, i32 2
  store i8 0, ptr %9, align 4, !tbaa !26
  %10 = getelementptr inbounds nuw %struct.gmx_output_env_t, ptr %5, i32 0, i32 4
  store i32 2, ptr %10, align 8, !tbaa !27
  %11 = getelementptr inbounds nuw %struct.gmx_output_env_t, ptr %5, i32 0, i32 5
  store i32 0, ptr %11, align 4, !tbaa !28
  %12 = getelementptr inbounds nuw %struct.gmx_output_env_t, ptr %5, i32 0, i32 6
  store i32 0, ptr %12, align 8, !tbaa !31
  ret void
}

; Function Attrs: mustprogress uwtable
define void @_Z15output_env_initPP16gmx_output_env_tRKN3gmx15IProgramContextENS2_8TimeUnitEb9XvgFormati(ptr noundef %0, ptr noundef nonnull align 8 dereferenceable(8) %1, i32 noundef %2, i1 noundef zeroext %3, i32 noundef %4, i32 noundef %5) #0 personality ptr @__gxx_personality_v0 {
  %7 = alloca ptr, align 8
  %8 = alloca ptr, align 8
  %9 = alloca i32, align 4
  %10 = alloca i8, align 1
  %11 = alloca i32, align 4
  %12 = alloca i32, align 4
  %13 = alloca ptr, align 8
  %14 = alloca ptr, align 8
  %15 = alloca i32, align 4
  %16 = alloca ptr, align 8
  %17 = alloca ptr, align 8
  store ptr %0, ptr %7, align 8, !tbaa !4
  store ptr %1, ptr %8, align 8, !tbaa !10
  store i32 %2, ptr %9, align 4, !tbaa !12
  %18 = zext i1 %3 to i8
  store i8 %18, ptr %10, align 1, !tbaa !14
  store i32 %4, ptr %11, align 4, !tbaa !16
  store i32 %5, ptr %12, align 4, !tbaa !18
  call void @llvm.lifetime.start.p0(i64 8, ptr %13) #14
  %19 = invoke noalias noundef nonnull ptr @_Znwm(i64 noundef 32) #15
          to label %20 unwind label %51

20:                                               ; preds = %6
  %21 = load ptr, ptr %8, align 8, !tbaa !10
  invoke void @_ZN16gmx_output_env_tC2ERKN3gmx15IProgramContextE(ptr noundef nonnull align 8 dereferenceable(28) %19, ptr noundef nonnull align 8 dereferenceable(8) %21)
          to label %22 unwind label %55

22:                                               ; preds = %20
  store ptr %19, ptr %13, align 8, !tbaa !20
  %23 = load ptr, ptr %13, align 8, !tbaa !20
  %24 = load ptr, ptr %7, align 8, !tbaa !4
  store ptr %23, ptr %24, align 8, !tbaa !20
  %25 = load i32, ptr %9, align 4, !tbaa !12
  %26 = load ptr, ptr %13, align 8, !tbaa !20
  %27 = getelementptr inbounds nuw %struct.gmx_output_env_t, ptr %26, i32 0, i32 1
  store i32 %25, ptr %27, align 8, !tbaa !22
  %28 = load i8, ptr %10, align 1, !tbaa !14, !range !24, !noundef !25
  %29 = trunc i8 %28 to i1
  %30 = load ptr, ptr %13, align 8, !tbaa !20
  %31 = getelementptr inbounds nuw %struct.gmx_output_env_t, ptr %30, i32 0, i32 2
  %32 = zext i1 %29 to i8
  store i8 %32, ptr %31, align 4, !tbaa !26
  %33 = load i32, ptr %11, align 4, !tbaa !16
  %34 = load ptr, ptr %13, align 8, !tbaa !20
  %35 = getelementptr inbounds nuw %struct.gmx_output_env_t, ptr %34, i32 0, i32 4
  store i32 %33, ptr %35, align 8, !tbaa !27
  %36 = load i32, ptr %12, align 4, !tbaa !18
  %37 = load ptr, ptr %13, align 8, !tbaa !20
  %38 = getelementptr inbounds nuw %struct.gmx_output_env_t, ptr %37, i32 0, i32 5
  store i32 %36, ptr %38, align 4, !tbaa !28
  call void @llvm.lifetime.start.p0(i64 8, ptr %16) #14
  %39 = call ptr @getenv(ptr noundef @.str) #14
  store ptr %39, ptr %16, align 8, !tbaa !29
  %40 = load ptr, ptr %16, align 8, !tbaa !29
  %41 = icmp ne ptr %40, null
  br i1 %41, label %42, label %45

42:                                               ; preds = %22
  %43 = load ptr, ptr %16, align 8, !tbaa !29
  %44 = call i64 @strtol(ptr noundef %43, ptr noundef null, i32 noundef 10) #14
  br label %46

45:                                               ; preds = %22
  br label %46

46:                                               ; preds = %45, %42
  %47 = phi i64 [ %44, %42 ], [ 1, %45 ]
  %48 = trunc i64 %47 to i32
  %49 = load ptr, ptr %13, align 8, !tbaa !20
  %50 = getelementptr inbounds nuw %struct.gmx_output_env_t, ptr %49, i32 0, i32 6
  store i32 %48, ptr %50, align 8, !tbaa !31
  call void @llvm.lifetime.end.p0(i64 8, ptr %16) #14
  call void @llvm.lifetime.end.p0(i64 8, ptr %13) #14
  br label %74

51:                                               ; preds = %6
  %52 = landingpad { ptr, i32 }
          cleanup
          catch ptr @_ZTISt9exception
  %53 = extractvalue { ptr, i32 } %52, 0
  store ptr %53, ptr %14, align 8
  %54 = extractvalue { ptr, i32 } %52, 1
  store i32 %54, ptr %15, align 4
  br label %59

55:                                               ; preds = %20
  %56 = landingpad { ptr, i32 }
          cleanup
          catch ptr @_ZTISt9exception
  %57 = extractvalue { ptr, i32 } %56, 0
  store ptr %57, ptr %14, align 8
  %58 = extractvalue { ptr, i32 } %56, 1
  store i32 %58, ptr %15, align 4
  call void @_ZdlPvm(ptr noundef %19, i64 noundef 32) #16
  br label %59

59:                                               ; preds = %55, %51
  call void @llvm.lifetime.end.p0(i64 8, ptr %13) #14
  br label %60

60:                                               ; preds = %59
  %61 = load i32, ptr %15, align 4
  %62 = call i32 @llvm.eh.typeid.for.p0(ptr @_ZTISt9exception) #14
  %63 = icmp eq i32 %61, %62
  br i1 %63, label %64, label %75

64:                                               ; preds = %60
  call void @llvm.lifetime.start.p0(i64 8, ptr %17) #14
  %65 = load ptr, ptr %14, align 8
  %66 = call ptr @__cxa_begin_catch(ptr %65) #14
  store ptr %66, ptr %17, align 8
  %67 = load ptr, ptr %17, align 8, !tbaa !32
  invoke void @_ZN3gmx28processExceptionAsFatalErrorERKSt9exception(ptr noundef nonnull align 8 dereferenceable(8) %67) #17
          to label %68 unwind label %69

68:                                               ; preds = %64
  unreachable

69:                                               ; preds = %64
  %70 = landingpad { ptr, i32 }
          cleanup
  %71 = extractvalue { ptr, i32 } %70, 0
  store ptr %71, ptr %14, align 8
  %72 = extractvalue { ptr, i32 } %70, 1
  store i32 %72, ptr %15, align 4
  invoke void @__cxa_end_catch()
          to label %73 unwind label %80

73:                                               ; preds = %69
  call void @llvm.lifetime.end.p0(i64 8, ptr %17) #14
  br label %75

74:                                               ; preds = %46
  ret void

75:                                               ; preds = %73, %60
  %76 = load ptr, ptr %14, align 8
  %77 = load i32, ptr %15, align 4
  %78 = insertvalue { ptr, i32 } poison, ptr %76, 0
  %79 = insertvalue { ptr, i32 } %78, i32 %77, 1
  resume { ptr, i32 } %79

80:                                               ; preds = %69
  %81 = landingpad { ptr, i32 }
          catch ptr null
  %82 = extractvalue { ptr, i32 } %81, 0
  call void @__clang_call_terminate(ptr %82) #18
  unreachable
}