; Function Attrs: mustprogress uwtable
define void @_Z15output_env_initPP16gmx_output_env_tRKN3gmx15IProgramContextENS2_8TimeUnitEb9XvgFormati(ptr noundef writeonly captures(none) %0, ptr noundef nonnull align 8 dereferenceable(8) %1, i32 noundef %2, i1 noundef zeroext %3, i32 noundef %4, i32 noundef %5) local_unnamed_addr #0 personality ptr @__gxx_personality_v0 {
  %7 = invoke noalias noundef nonnull dereferenceable(32) ptr @_Znwm(i64 noundef 32) #16
          to label %8 unwind label %21

8:                                                ; preds = %6
  %9 = zext i1 %3 to i8
  store ptr %1, ptr %7, align 8, !tbaa !4
  %10 = getelementptr inbounds nuw i8, ptr %7, i64 8
  %11 = getelementptr inbounds nuw i8, ptr %7, i64 12
  %12 = getelementptr inbounds nuw i8, ptr %7, i64 16
  %13 = getelementptr inbounds nuw i8, ptr %7, i64 20
  %14 = getelementptr inbounds nuw i8, ptr %7, i64 24
  store i32 0, ptr %14, align 8, !tbaa !9
  store ptr %7, ptr %0, align 8, !tbaa !15
  store i32 %2, ptr %10, align 8, !tbaa !17
  store i8 %9, ptr %11, align 4, !tbaa !18
  store i32 %4, ptr %12, align 8, !tbaa !19
  store i32 %5, ptr %13, align 4, !tbaa !20
  %15 = tail call ptr @getenv(ptr noundef nonnull @.str) #17
  %.not = icmp eq ptr %15, null
  br i1 %.not, label %19, label %16

16:                                               ; preds = %8
  %17 = tail call i64 @strtol(ptr noundef nonnull captures(none) %15, ptr noundef null, i32 noundef 10) #17
  %18 = trunc i64 %17 to i32
  br label %19

19:                                               ; preds = %8, %16
  %20 = phi i32 [ %18, %16 ], [ 1, %8 ]
  store i32 %20, ptr %14, align 8, !tbaa !9
  ret void

21:                                               ; preds = %6
  %22 = landingpad { ptr, i32 }
          cleanup
          catch ptr @_ZTISt9exception
  %23 = extractvalue { ptr, i32 } %22, 1
  %24 = tail call i32 @llvm.eh.typeid.for.p0(ptr nonnull @_ZTISt9exception) #17
  %25 = icmp eq i32 %23, %24
  br i1 %25, label %26, label %32

26:                                               ; preds = %21
  %27 = extractvalue { ptr, i32 } %22, 0
  %28 = tail call ptr @__cxa_begin_catch(ptr %27) #17
  invoke void @_ZN3gmx28processExceptionAsFatalErrorERKSt9exception(ptr noundef nonnull align 8 dereferenceable(8) %28) #18
          to label %29 unwind label %30

29:                                               ; preds = %26
  unreachable

30:                                               ; preds = %26
  %31 = landingpad { ptr, i32 }
          cleanup
  invoke void @__cxa_end_catch()
          to label %32 unwind label %33

32:                                               ; preds = %30, %21
  %.merged = phi { ptr, i32 } [ %22, %21 ], [ %31, %30 ]
  resume { ptr, i32 } %.merged

33:                                               ; preds = %30
  %34 = landingpad { ptr, i32 }
          catch ptr null
  %35 = extractvalue { ptr, i32 } %34, 0
  tail call void @__clang_call_terminate(ptr %35) #19
  unreachable
}